; Function Attrs: nounwind uwtable
define void @FT_Add_Default_Modules(ptr noundef %0) local_unnamed_addr #0 {
  br label %2

2:                                                ; preds = %1, %2
  %3 = phi ptr [ @autofit_module_class, %1 ], [ %6, %2 ]
  %.05 = phi ptr [ @ft_default_modules, %1 ], [ %5, %2 ]
  %4 = tail call i32 @FT_Add_Module(ptr noundef %0, ptr noundef nonnull %3) #3
  %5 = getelementptr inbounds i8, ptr %.05, i64 8
  %6 = load ptr, ptr %5, align 8
  %.not = icmp eq ptr %6, null
  br i1 %.not, label %7, label %2, !llvm.loop !4

7:                                                ; preds = %2
  ret void
}